target datalayout = "e-m:e-p270:32:32-p271:32:32-p272:64:64-i64:64-i128:128-f80:128-n8:16:32:64-S128"
target triple = "x86_64-pc-linux-gnu"

; Function Attrs: nounwind uwtable
define void @rgb16tobgr15(ptr noundef %0, ptr noundef %1, i32 noundef %2) #0 {
  %4 = alloca ptr, align 8
  %5 = alloca ptr, align 8
  %6 = alloca i32, align 4
  %7 = alloca i32, align 4
  %8 = alloca i32, align 4
  %9 = alloca i32, align 4
  store ptr %0, ptr %4, align 8, !tbaa !4
  store ptr %1, ptr %5, align 8, !tbaa !4
  store i32 %2, ptr %6, align 4, !tbaa !9
  call void @llvm.lifetime.start.p0(i64 4, ptr %7) #5
  call void @llvm.lifetime.start.p0(i64 4, ptr %8) #5
  %10 = load i32, ptr %6, align 4, !tbaa !9
  %11 = ashr i32 %10, 1
  store i32 %11, ptr %8, align 4, !tbaa !9
  store i32 0, ptr %7, align 4, !tbaa !9
  br label %12

12:                                               ; preds = %38, %3
  %13 = load i32, ptr %7, align 4, !tbaa !9
  %14 = load i32, ptr %8, align 4, !tbaa !9
  %15 = icmp slt i32 %13, %14
  br i1 %15, label %16, label %41

16:                                               ; preds = %12
  call void @llvm.lifetime.start.p0(i64 4, ptr %9) #5
  %17 = load ptr, ptr %4, align 8, !tbaa !4
  %18 = load i32, ptr %7, align 4, !tbaa !9
  %19 = sext i32 %18 to i64
  %20 = getelementptr inbounds i16, ptr %17, i64 %19
  %21 = load i16, ptr %20, align 2, !tbaa !22
  %22 = zext i16 %21 to i32
  store i32 %22, ptr %9, align 4, !tbaa !9
  %23 = load i32, ptr %9, align 4, !tbaa !9
  %24 = lshr i32 %23, 11
  %25 = load i32, ptr %9, align 4, !tbaa !9
  %26 = and i32 %25, 1984
  %27 = lshr i32 %26, 1
  %28 = or i32 %24, %27
  %29 = load i32, ptr %9, align 4, !tbaa !9
  %30 = and i32 %29, 31
  %31 = shl i32 %30, 10
  %32 = or i32 %28, %31
  %33 = trunc i32 %32 to i16
  %34 = load ptr, ptr %5, align 8, !tbaa !4
  %35 = load i32, ptr %7, align 4, !tbaa !9
  %36 = sext i32 %35 to i64
  %37 = getelementptr inbounds i16, ptr %34, i64 %36
  store i16 %33, ptr %37, align 2, !tbaa !22
  call void @llvm.lifetime.end.p0(i64 4, ptr %9) #5
  br label %38

38:                                               ; preds = %16
  %39 = load i32, ptr %7, align 4, !tbaa !9
  %40 = add nsw i32 %39, 1
  store i32 %40, ptr %7, align 4, !tbaa !9
  br label %12, !llvm.loop !28

41:                                               ; preds = %12
  call void @llvm.lifetime.end.p0(i64 4, ptr %8) #5
  call void @llvm.lifetime.end.p0(i64 4, ptr %7) #5
  ret void
}