; Function Attrs: nofree norecurse nosync nounwind memory(argmem: readwrite) uwtable
define void @rgb16tobgr15(ptr noundef readonly captures(none) %0, ptr noundef writeonly captures(none) %1, i32 noundef %2) local_unnamed_addr #0 {
  %4 = ashr i32 %2, 1
  %5 = icmp sgt i32 %4, 0
  br i1 %5, label %.lr.ph.preheader, label %._crit_edge

.lr.ph.preheader:                                 ; preds = %3
  %wide.trip.count = zext nneg i32 %4 to i64
  br label %.lr.ph

.lr.ph:                                           ; preds = %.lr.ph.preheader, %.lr.ph
  %indvars.iv = phi i64 [ 0, %.lr.ph.preheader ], [ %indvars.iv.next, %.lr.ph ]
  %6 = getelementptr inbounds nuw i16, ptr %0, i64 %indvars.iv
  %7 = load i16, ptr %6, align 2, !tbaa !16
  %8 = lshr i16 %7, 11
  %9 = lshr i16 %7, 1
  %10 = and i16 %9, 992
  %11 = or disjoint i16 %10, %8
  %12 = shl i16 %7, 10
  %13 = and i16 %12, 31744
  %14 = or disjoint i16 %11, %13
  %15 = getelementptr inbounds nuw i16, ptr %1, i64 %indvars.iv
  store i16 %14, ptr %15, align 2, !tbaa !16
  %indvars.iv.next = add nuw nsw i64 %indvars.iv, 1
  %exitcond.not = icmp eq i64 %indvars.iv.next, %wide.trip.count
  br i1 %exitcond.not, label %._crit_edge, label %.lr.ph, !llvm.loop !22

._crit_edge:                                      ; preds = %.lr.ph, %3
  ret void
}